target datalayout = "e-m:e-p270:32:32-p271:32:32-p272:64:64-i64:64-i128:128-f80:128-n8:16:32:64-S128"
target triple = "x86_64-pc-linux-gnu"

%"struct.Luau::FValue" = type { i8, i8, ptr, ptr }
%"struct.Luau::Lexeme" = type { i32, %"struct.Luau::Location", i32, %union.anon }
%"struct.Luau::Location" = type { %"struct.Luau::Position", %"struct.Luau::Position" }
%"struct.Luau::Position" = type { i32, i32 }
%union.anon = type { ptr }
%"class.Luau::Lexer" = type { ptr, i64, i32, i32, i32, %"struct.Luau::Lexeme", %"struct.Luau::Location", ptr, i8, i8, %"class.std::vector" }
%"class.std::vector" = type { %"struct.std::_Vector_base" }
%"struct.std::_Vector_base" = type { %"struct.std::_Vector_base<Luau::Lexer::BraceType, std::allocator<Luau::Lexer::BraceType>>::_Vector_impl" }
%"struct.std::_Vector_base<Luau::Lexer::BraceType, std::allocator<Luau::Lexer::BraceType>>::_Vector_impl" = type { %"struct.std::_Vector_base<Luau::Lexer::BraceType, std::allocator<Luau::Lexer::BraceType>>::_Vector_impl_data" }
%"struct.std::_Vector_base<Luau::Lexer::BraceType, std::allocator<Luau::Lexer::BraceType>>::_Vector_impl_data" = type { ptr, ptr, ptr }

@_ZN5FFlag25LexerResumesFromPosition2E = dso_local global %"struct.Luau::FValue" zeroinitializer, align 8
@_ZN4Luau6LexemeC1ERKNS_8LocationENS0_4TypeE = dso_local unnamed_addr alias void (ptr, ptr, i32), ptr @_ZN4Luau6LexemeC2ERKNS_8LocationENS0_4TypeE

; Function Attrs: mustprogress nounwind uwtable
define linkonce_odr dso_local void @_ZNSt15__new_allocatorIN4Luau5Lexer9BraceTypeEEC2Ev(ptr noundef nonnull align 1 dereferenceable(1) %0) unnamed_addr #2 comdat align 2 {
  %2 = alloca ptr, align 8
  store ptr %0, ptr %2, align 8, !tbaa !141
  ret void
}

; Function Attrs: mustprogress nounwind uwtable
define linkonce_odr dso_local void @_ZNSt12_Vector_baseIN4Luau5Lexer9BraceTypeESaIS2_EE17_Vector_impl_dataC2Ev(ptr noundef nonnull align 8 dereferenceable(24) %0) unnamed_addr #2 comdat align 2 {
  %2 = alloca ptr, align 8
  store ptr %0, ptr %2, align 8, !tbaa !139
  %3 = load ptr, ptr %2, align 8
  %4 = getelementptr inbounds nuw %"struct.std::_Vector_base<Luau::Lexer::BraceType, std::allocator<Luau::Lexer::BraceType>>::_Vector_impl_data", ptr %3, i32 0, i32 0
  store ptr null, ptr %4, align 8, !tbaa !103
  %5 = getelementptr inbounds nuw %"struct.std::_Vector_base<Luau::Lexer::BraceType, std::allocator<Luau::Lexer::BraceType>>::_Vector_impl_data", ptr %3, i32 0, i32 1
  store ptr null, ptr %5, align 8, !tbaa !102
  %6 = getelementptr inbounds nuw %"struct.std::_Vector_base<Luau::Lexer::BraceType, std::allocator<Luau::Lexer::BraceType>>::_Vector_impl_data", ptr %3, i32 0, i32 2
  store ptr null, ptr %6, align 8, !tbaa !104
  ret void
}

; Function Attrs: mustprogress nounwind uwtable
define linkonce_odr dso_local void @_ZNSaIN4Luau5Lexer9BraceTypeEEC2Ev(ptr noundef nonnull align 1 dereferenceable(1) %0) unnamed_addr #2 comdat align 2 {
  %2 = alloca ptr, align 8
  store ptr %0, ptr %2, align 8, !tbaa !137
  %3 = load ptr, ptr %2, align 8
  call void @_ZNSt15__new_allocatorIN4Luau5Lexer9BraceTypeEEC2Ev(ptr noundef nonnull align 1 dereferenceable(1) %3) #18
  ret void
}

; Function Attrs: mustprogress nounwind uwtable
define linkonce_odr dso_local void @_ZNSt12_Vector_baseIN4Luau5Lexer9BraceTypeESaIS2_EE12_Vector_implC2Ev(ptr noundef nonnull align 8 dereferenceable(24) %0) unnamed_addr #2 comdat align 2 {
  %2 = alloca ptr, align 8
  store ptr %0, ptr %2, align 8, !tbaa !135
  %3 = load ptr, ptr %2, align 8
  call void @_ZNSaIN4Luau5Lexer9BraceTypeEEC2Ev(ptr noundef nonnull align 1 dereferenceable(1) %3) #18
  call void @_ZNSt12_Vector_baseIN4Luau5Lexer9BraceTypeESaIS2_EE17_Vector_impl_dataC2Ev(ptr noundef nonnull align 8 dereferenceable(24) %3) #18
  ret void
}

; Function Attrs: mustprogress nounwind uwtable
define linkonce_odr dso_local void @_ZNSt12_Vector_baseIN4Luau5Lexer9BraceTypeESaIS2_EEC2Ev(ptr noundef nonnull align 8 dereferenceable(24) %0) unnamed_addr #2 comdat align 2 {
  %2 = alloca ptr, align 8
  store ptr %0, ptr %2, align 8, !tbaa !133
  %3 = load ptr, ptr %2, align 8
  %4 = getelementptr inbounds nuw %"struct.std::_Vector_base", ptr %3, i32 0, i32 0
  call void @_ZNSt12_Vector_baseIN4Luau5Lexer9BraceTypeESaIS2_EE12_Vector_implC2Ev(ptr noundef nonnull align 8 dereferenceable(24) %4) #18
  ret void
}

; Function Attrs: mustprogress nounwind uwtable
define linkonce_odr dso_local void @_ZNSt6vectorIN4Luau5Lexer9BraceTypeESaIS2_EEC2Ev(ptr noundef nonnull align 8 dereferenceable(24) %0) unnamed_addr #2 comdat align 2 {
  %2 = alloca ptr, align 8
  store ptr %0, ptr %2, align 8, !tbaa !90
  %3 = load ptr, ptr %2, align 8
  call void @_ZNSt12_Vector_baseIN4Luau5Lexer9BraceTypeESaIS2_EEC2Ev(ptr noundef nonnull align 8 dereferenceable(24) %3) #18
  ret void
}

; Function Attrs: mustprogress uwtable
define linkonce_odr dso_local void @_ZN4Luau8LocationC2Ev(ptr noundef nonnull align 4 dereferenceable(16) %0) unnamed_addr #4 comdat align 2 {
  %2 = alloca ptr, align 8
  store ptr %0, ptr %2, align 8, !tbaa !24
  %3 = load ptr, ptr %2, align 8
  %4 = getelementptr inbounds nuw %"struct.Luau::Location", ptr %3, i32 0, i32 0
  call void @_ZN4Luau8PositionC2Ejj(ptr noundef nonnull align 4 dereferenceable(8) %4, i32 noundef 0, i32 noundef 0)
  %5 = getelementptr inbounds nuw %"struct.Luau::Location", ptr %3, i32 0, i32 1
  call void @_ZN4Luau8PositionC2Ejj(ptr noundef nonnull align 4 dereferenceable(8) %5, i32 noundef 0, i32 noundef 0)
  ret void
}

; Function Attrs: mustprogress uwtable
define linkonce_odr dso_local void @_ZN4Luau8LocationC2ERKNS_8PositionEj(ptr noundef nonnull align 4 dereferenceable(16) %0, ptr noundef nonnull align 4 dereferenceable(8) %1, i32 noundef %2) unnamed_addr #4 comdat align 2 {
  %4 = alloca ptr, align 8
  %5 = alloca ptr, align 8
  %6 = alloca i32, align 4
  store ptr %0, ptr %4, align 8, !tbaa !24
  store ptr %1, ptr %5, align 8, !tbaa !87
  store i32 %2, ptr %6, align 4, !tbaa !4
  %7 = load ptr, ptr %4, align 8
  %8 = getelementptr inbounds nuw %"struct.Luau::Location", ptr %7, i32 0, i32 0
  %9 = load ptr, ptr %5, align 8, !tbaa !87
  call void @llvm.memcpy.p0.p0.i64(ptr align 4 %8, ptr align 4 %9, i64 8, i1 false), !tbaa.struct !89
  %10 = getelementptr inbounds nuw %"struct.Luau::Location", ptr %7, i32 0, i32 1
  %11 = load ptr, ptr %5, align 8, !tbaa !87
  %12 = getelementptr inbounds nuw %"struct.Luau::Position", ptr %11, i32 0, i32 0
  %13 = load i32, ptr %12, align 4, !tbaa !81
  %14 = load ptr, ptr %5, align 8, !tbaa !87
  %15 = getelementptr inbounds nuw %"struct.Luau::Position", ptr %14, i32 0, i32 1
  %16 = load i32, ptr %15, align 4, !tbaa !83
  %17 = load i32, ptr %6, align 4, !tbaa !4
  %18 = add i32 %16, %17
  call void @_ZN4Luau8PositionC2Ejj(ptr noundef nonnull align 4 dereferenceable(8) %10, i32 noundef %13, i32 noundef %18)
  ret void
}

; Function Attrs: mustprogress nounwind uwtable
define linkonce_odr dso_local void @_ZN4Luau8PositionC2Ejj(ptr noundef nonnull align 4 dereferenceable(8) %0, i32 noundef %1, i32 noundef %2) unnamed_addr #2 comdat align 2 {
  %4 = alloca ptr, align 8
  %5 = alloca i32, align 4
  %6 = alloca i32, align 4
  store ptr %0, ptr %4, align 8, !tbaa !87
  store i32 %1, ptr %5, align 4, !tbaa !4
  store i32 %2, ptr %6, align 4, !tbaa !4
  %7 = load ptr, ptr %4, align 8
  %8 = getelementptr inbounds nuw %"struct.Luau::Position", ptr %7, i32 0, i32 0
  %9 = load i32, ptr %5, align 4, !tbaa !4
  store i32 %9, ptr %8, align 4, !tbaa !81
  %10 = getelementptr inbounds nuw %"struct.Luau::Position", ptr %7, i32 0, i32 1
  %11 = load i32, ptr %6, align 4, !tbaa !4
  store i32 %11, ptr %10, align 4, !tbaa !83
  ret void
}

; Function Attrs: alwaysinline mustprogress nounwind uwtable
define linkonce_odr dso_local noundef zeroext i1 @_ZNK4Luau6FValueIbEcvbEv(ptr noundef nonnull align 8 dereferenceable(24) %0) #8 comdat align 2 {
  %2 = alloca ptr, align 8
  store ptr %0, ptr %2, align 8, !tbaa !8
  %3 = load ptr, ptr %2, align 8
  %4 = getelementptr inbounds nuw %"struct.Luau::FValue", ptr %3, i32 0, i32 0
  %5 = load i8, ptr %4, align 8, !tbaa !17, !range !15, !noundef !16
  %6 = trunc i8 %5 to i1
  ret i1 %6
}

; Function Attrs: mustprogress uwtable
define dso_local void @_ZN4Luau5LexerC2EPKcmRNS_12AstNameTableENS_8PositionE(ptr noundef nonnull align 8 dereferenceable(120) %0, ptr noundef %1, i64 noundef %2, ptr noundef nonnull align 8 dereferenceable(56) %3, i64 %4) unnamed_addr #4 align 2 {
  %6 = alloca %"struct.Luau::Position", align 4
  %7 = alloca ptr, align 8
  %8 = alloca ptr, align 8
  %9 = alloca i64, align 8
  %10 = alloca ptr, align 8
  %11 = alloca %"struct.Luau::Location", align 4
  %12 = alloca %"struct.Luau::Position", align 4
  %13 = alloca %"struct.Luau::Position", align 4
  store i64 %4, ptr %6, align 4
  store ptr %0, ptr %7, align 8, !tbaa !71
  store ptr %1, ptr %8, align 8, !tbaa !11
  store i64 %2, ptr %9, align 8, !tbaa !35
  store ptr %3, ptr %10, align 8, !tbaa !51
  %14 = load ptr, ptr %7, align 8
  %15 = getelementptr inbounds nuw %"class.Luau::Lexer", ptr %14, i32 0, i32 0
  %16 = load ptr, ptr %8, align 8, !tbaa !11
  store ptr %16, ptr %15, align 8, !tbaa !73
  %17 = getelementptr inbounds nuw %"class.Luau::Lexer", ptr %14, i32 0, i32 1
  %18 = load i64, ptr %9, align 8, !tbaa !35
  store i64 %18, ptr %17, align 8, !tbaa !79
  %19 = getelementptr inbounds nuw %"class.Luau::Lexer", ptr %14, i32 0, i32 2
  store i32 0, ptr %19, align 8, !tbaa !80
  %20 = getelementptr inbounds nuw %"class.Luau::Lexer", ptr %14, i32 0, i32 3
  %21 = call noundef zeroext i1 @_ZNK4Luau6FValueIbEcvbEv(ptr noundef nonnull align 8 dereferenceable(24) @_ZN5FFlag25LexerResumesFromPosition2E)
  br i1 %21, label %22, label %25

22:                                               ; preds = %5
  %23 = getelementptr inbounds nuw %"struct.Luau::Position", ptr %6, i32 0, i32 0
  %24 = load i32, ptr %23, align 4, !tbaa !81
  br label %26

25:                                               ; preds = %5
  br label %26

26:                                               ; preds = %25, %22
  %27 = phi i32 [ %24, %22 ], [ 0, %25 ]
  store i32 %27, ptr %20, align 4, !tbaa !82
  %28 = getelementptr inbounds nuw %"class.Luau::Lexer", ptr %14, i32 0, i32 4
  %29 = call noundef zeroext i1 @_ZNK4Luau6FValueIbEcvbEv(ptr noundef nonnull align 8 dereferenceable(24) @_ZN5FFlag25LexerResumesFromPosition2E)
  br i1 %29, label %30, label %34

30:                                               ; preds = %26
  %31 = getelementptr inbounds nuw %"struct.Luau::Position", ptr %6, i32 0, i32 1
  %32 = load i32, ptr %31, align 4, !tbaa !83
  %33 = sub i32 0, %32
  br label %35

34:                                               ; preds = %26
  br label %35

35:                                               ; preds = %34, %30
  %36 = phi i32 [ %33, %30 ], [ 0, %34 ]
  store i32 %36, ptr %28, align 8, !tbaa !84
  %37 = getelementptr inbounds nuw %"class.Luau::Lexer", ptr %14, i32 0, i32 5
  call void @llvm.lifetime.start.p0(i64 16, ptr %11) #18
  %38 = call noundef zeroext i1 @_ZNK4Luau6FValueIbEcvbEv(ptr noundef nonnull align 8 dereferenceable(24) @_ZN5FFlag25LexerResumesFromPosition2E)
  call void @llvm.lifetime.start.p0(i64 8, ptr %12) #18
  call void @llvm.lifetime.start.p0(i64 8, ptr %13) #18
  br i1 %38, label %39, label %44

39:                                               ; preds = %35
  %40 = getelementptr inbounds nuw %"struct.Luau::Position", ptr %6, i32 0, i32 0
  %41 = load i32, ptr %40, align 4, !tbaa !81
  %42 = getelementptr inbounds nuw %"struct.Luau::Position", ptr %6, i32 0, i32 1
  %43 = load i32, ptr %42, align 4, !tbaa !83
  call void @_ZN4Luau8PositionC2Ejj(ptr noundef nonnull align 4 dereferenceable(8) %12, i32 noundef %41, i32 noundef %43)
  call void @_ZN4Luau8LocationC2ERKNS_8PositionEj(ptr noundef nonnull align 4 dereferenceable(16) %11, ptr noundef nonnull align 4 dereferenceable(8) %12, i32 noundef 0)
  br label %45

44:                                               ; preds = %35
  call void @_ZN4Luau8PositionC2Ejj(ptr noundef nonnull align 4 dereferenceable(8) %13, i32 noundef 0, i32 noundef 0)
  call void @_ZN4Luau8LocationC2ERKNS_8PositionEj(ptr noundef nonnull align 4 dereferenceable(16) %11, ptr noundef nonnull align 4 dereferenceable(8) %13, i32 noundef 0)
  br label %45

45:                                               ; preds = %44, %39
  call void @_ZN4Luau6LexemeC1ERKNS_8LocationENS0_4TypeE(ptr noundef nonnull align 8 dereferenceable(32) %37, ptr noundef nonnull align 4 dereferenceable(16) %11, i32 noundef 0)
  call void @llvm.lifetime.end.p0(i64 8, ptr %13) #18
  call void @llvm.lifetime.end.p0(i64 8, ptr %12) #18
  call void @llvm.lifetime.end.p0(i64 16, ptr %11) #18
  %46 = getelementptr inbounds nuw %"class.Luau::Lexer", ptr %14, i32 0, i32 6
  call void @_ZN4Luau8LocationC2Ev(ptr noundef nonnull align 4 dereferenceable(16) %46)
  %47 = getelementptr inbounds nuw %"class.Luau::Lexer", ptr %14, i32 0, i32 7
  %48 = load ptr, ptr %10, align 8, !tbaa !51
  store ptr %48, ptr %47, align 8, !tbaa !51
  %49 = getelementptr inbounds nuw %"class.Luau::Lexer", ptr %14, i32 0, i32 8
  store i8 0, ptr %49, align 8, !tbaa !85
  %50 = getelementptr inbounds nuw %"class.Luau::Lexer", ptr %14, i32 0, i32 9
  store i8 1, ptr %50, align 1, !tbaa !86
  %51 = getelementptr inbounds nuw %"class.Luau::Lexer", ptr %14, i32 0, i32 10
  call void @_ZNSt6vectorIN4Luau5Lexer9BraceTypeESaIS2_EEC2Ev(ptr noundef nonnull align 8 dereferenceable(24) %51) #18
  ret void
}