; Function Attrs: mustprogress nofree norecurse nosync nounwind willreturn memory(read, argmem: write, inaccessiblemem: none) uwtable
define dso_local void @_ZN4Luau5LexerC2EPKcmRNS_12AstNameTableENS_8PositionE(ptr noundef nonnull writeonly align 8 captures(none) dereferenceable(120) initializes((0, 28), (32, 90), (96, 120)) %0, ptr noundef %1, i64 noundef %2, ptr noundef nonnull align 8 dereferenceable(56) %3, i64 %4) unnamed_addr #10 align 2 {
  %.sroa.0.0.extract.trunc = trunc i64 %4 to i32
  %.sroa.3.0.extract.shift = lshr i64 %4, 32
  %.sroa.3.0.extract.trunc = trunc nuw i64 %.sroa.3.0.extract.shift to i32
  store ptr %1, ptr %0, align 8, !tbaa !51
  %6 = getelementptr inbounds nuw i8, ptr %0, i64 8
  store i64 %2, ptr %6, align 8, !tbaa !59
  %7 = getelementptr inbounds nuw i8, ptr %0, i64 16
  store i32 0, ptr %7, align 8, !tbaa !60
  %8 = getelementptr inbounds nuw i8, ptr %0, i64 20
  %9 = load i8, ptr @_ZN5FFlag25LexerResumesFromPosition2E, align 8, !tbaa !61, !range !64, !noundef !65
  %10 = trunc nuw i8 %9 to i1
  %11 = select i1 %10, i32 %.sroa.0.0.extract.trunc, i32 0
  store i32 %11, ptr %8, align 4, !tbaa !66
  %12 = getelementptr inbounds nuw i8, ptr %0, i64 24
  %13 = sub i32 0, %.sroa.3.0.extract.trunc
  %14 = select i1 %10, i32 %13, i32 0
  store i32 %14, ptr %12, align 8, !tbaa !67
  %.sroa.09.0 = select i1 %10, i64 %4, i64 0
  %.sroa.7.0 = select i1 %10, i32 %.sroa.3.0.extract.trunc, i32 0
  %15 = getelementptr inbounds nuw i8, ptr %0, i64 32
  store i32 0, ptr %15, align 8, !tbaa !8
  %16 = getelementptr inbounds nuw i8, ptr %0, i64 36
  store i64 %.sroa.09.0, ptr %16, align 4
  %.sroa.510.0..sroa_idx = getelementptr inbounds nuw i8, ptr %0, i64 44
  store i32 %11, ptr %.sroa.510.0..sroa_idx, align 4, !tbaa !4
  %.sroa.7.0..sroa_idx = getelementptr inbounds nuw i8, ptr %0, i64 48
  store i32 %.sroa.7.0, ptr %.sroa.7.0..sroa_idx, align 8, !tbaa !4
  %17 = getelementptr inbounds nuw i8, ptr %0, i64 52
  %18 = getelementptr inbounds nuw i8, ptr %0, i64 80
  tail call void @llvm.memset.p0.i64(ptr noundef nonnull align 4 dereferenceable(28) %17, i8 0, i64 28, i1 false)
  store ptr %3, ptr %18, align 8, !tbaa !68
  %19 = getelementptr inbounds nuw i8, ptr %0, i64 88
  store i8 0, ptr %19, align 8, !tbaa !69
  %20 = getelementptr inbounds nuw i8, ptr %0, i64 89
  store i8 1, ptr %20, align 1, !tbaa !70
  %21 = getelementptr inbounds nuw i8, ptr %0, i64 96
  tail call void @llvm.memset.p0.i64(ptr noundef nonnull align 8 dereferenceable(24) %21, i8 0, i64 24, i1 false)
  ret void
}